---
triple:          'arm64-apple-darwin'
binary-path:     '/Users/rayyanzaid/Desktop/CS142/Program2_Stack/version3/mainVersion3'
relocations:
  - { offsetInCU: 0x3F0F, offset: 0x3F0F, size: 0x8, addend: 0x0, symName: __ZNSt3__117__cxx_atomic_loadB7v160006IP4NodeEET_PKNS_22__cxx_atomic_base_implIS3_EENS_12memory_orderE, symObjAddr: 0xC10, symBinAddr: 0x1000029F4, symSize: 0x80 }
  - { offsetInCU: 0x415A, offset: 0x415A, size: 0x8, addend: 0x0, symName: __ZNSt3__16chronomiB7v160006IxNS_5ratioILl1ELl1000000000EEExS3_EENS_11common_typeIJNS0_8durationIT_T0_EENS5_IT1_T2_EEEE4typeERKS8_RKSB_, symObjAddr: 0x1038, symBinAddr: 0x100002E1C, symSize: 0x70 }
  - { offsetInCU: 0x41CF, offset: 0x41CF, size: 0x8, addend: 0x0, symName: __ZNSt3__16chrono13duration_castB7v160006INS0_8durationIxNS_5ratioILl1ELl1000000000EEEEExS4_EENS_9enable_ifIXsr13__is_durationIT_EE5valueES7_E4typeERKNS2_IT0_T1_EE, symObjAddr: 0x82C, symBinAddr: 0x100002610, symSize: 0x30 }
  - { offsetInCU: 0x4216, offset: 0x4216, size: 0x8, addend: 0x0, symName: __ZNSt3__16chronomiB7v160006INS0_12steady_clockENS0_8durationIxNS_5ratioILl1ELl1000000000EEEEES6_EENS_11common_typeIJT0_T1_EE4typeERKNS0_10time_pointIT_S8_EERKNSC_ISD_S9_EE, symObjAddr: 0x85C, symBinAddr: 0x100002640, symSize: 0x58 }
  - { offsetInCU: 0x4455, offset: 0x4455, size: 0x8, addend: 0x0, symName: __ZNSt3__124__put_character_sequenceB7v160006IcNS_11char_traitsIcEEEERNS_13basic_ostreamIT_T0_EES7_PKS4_m, symObjAddr: 0x12EC, symBinAddr: 0x1000030D0, symSize: 0x1EC }
  - { offsetInCU: 0x65AA, offset: 0x65AA, size: 0x8, addend: 0x0, symName: __ZNSt3__1lsB7v160006INS_11char_traitsIcEEEERNS_13basic_ostreamIcT_EES6_PKc, symObjAddr: 0x760, symBinAddr: 0x100002544, symSize: 0x48 }
  - { offsetInCU: 0x65F0, offset: 0x65F0, size: 0x8, addend: 0x0, symName: __ZNSt3__14endlB7v160006IcNS_11char_traitsIcEEEERNS_13basic_ostreamIT_T0_EES7_, symObjAddr: 0x7D4, symBinAddr: 0x1000025B8, symSize: 0x58 }
  - { offsetInCU: 0x663B, offset: 0x663B, size: 0x8, addend: 0x0, symName: __ZNSt3__118__cxx_atomic_storeB7v160006IP4NodeEEvPNS_22__cxx_atomic_base_implIT_EES4_NS_12memory_orderE, symObjAddr: 0xCC4, symBinAddr: 0x100002AA8, symSize: 0x84 }
  - { offsetInCU: 0x668C, offset: 0x668C, size: 0x8, addend: 0x0, symName: __ZNSt3__122__cxx_atomic_fetch_addB7v160006IiEET_PNS_22__cxx_atomic_base_implIS1_EES1_NS_12memory_orderE, symObjAddr: 0xD7C, symBinAddr: 0x100002B60, symSize: 0xC4 }
  - { offsetInCU: 0x66E1, offset: 0x66E1, size: 0x8, addend: 0x0, symName: __ZNSt3__118__cxx_atomic_storeB7v160006IiEEvPNS_22__cxx_atomic_base_implIT_EES2_NS_12memory_orderE, symObjAddr: 0xF10, symBinAddr: 0x100002CF4, symSize: 0x84 }
  - { offsetInCU: 0x67BB, offset: 0x67BB, size: 0x8, addend: 0x0, symName: __ZNSt3__116__pad_and_outputB7v160006IcNS_11char_traitsIcEEEENS_19ostreambuf_iteratorIT_T0_EES6_PKS4_S8_S8_RNS_8ios_baseES4_, symObjAddr: 0x1528, symBinAddr: 0x10000330C, symSize: 0x240 }
  - { offsetInCU: 0x688A, offset: 0x688A, size: 0x8, addend: 0x0, symName: __ZNSt3__119__debug_db_insert_cB7v160006INS_12basic_stringIcNS_11char_traitsIcEENS_9allocatorIcEEEEEEvPT_, symObjAddr: 0x19BC, symBinAddr: 0x1000037A0, symSize: 0x10 }
  - { offsetInCU: 0x68BB, offset: 0x68BB, size: 0x8, addend: 0x0, symName: __ZNSt3__112__to_addressB7v160006IKcEEPT_S3_, symObjAddr: 0x1A88, symBinAddr: 0x10000386C, symSize: 0x14 }
  - { offsetInCU: 0x6923, offset: 0x6923, size: 0x8, addend: 0x0, symName: __ZNSt3__19use_facetB7v160006INS_5ctypeIcEEEERKT_RKNS_6localeE, symObjAddr: 0x1D00, symBinAddr: 0x100003AE4, symSize: 0x2C }
  - { offsetInCU: 0x6DF2, offset: 0x6DF2, size: 0x8, addend: 0x0, symName: __ZNSt3__118__constexpr_strlenB7v160006EPKc, symObjAddr: 0x1D64, symBinAddr: 0x100003B48, symSize: 0x24 }
  - { offsetInCU: 0x959F, offset: 0x959F, size: 0x8, addend: 0x0, symName: __Z15pushEvenNumbersPv, symObjAddr: 0x0, symBinAddr: 0x100001DE4, symSize: 0x80 }
  - { offsetInCU: 0x9617, offset: 0x9617, size: 0x8, addend: 0x0, symName: __ZN5Stack9pushFrontEi, symObjAddr: 0x80, symBinAddr: 0x100001E64, symSize: 0xB8 }
  - { offsetInCU: 0x9668, offset: 0x9668, size: 0x8, addend: 0x0, symName: __Z14pushOddNumbersPv, symObjAddr: 0x138, symBinAddr: 0x100001F1C, symSize: 0x80 }
  - { offsetInCU: 0x96E0, offset: 0x96E0, size: 0x8, addend: 0x0, symName: __Z18twoThreadsVersion3i, symObjAddr: 0x1B8, symBinAddr: 0x100001F9C, symSize: 0xC4 }
  - { offsetInCU: 0x9746, offset: 0x9746, size: 0x8, addend: 0x0, symName: __ZN5StackC1Ev, symObjAddr: 0x27C, symBinAddr: 0x100002060, symSize: 0x2C }
  - { offsetInCU: 0x9770, offset: 0x9770, size: 0x8, addend: 0x0, symName: __Z11pushNumbersi, symObjAddr: 0x2A8, symBinAddr: 0x10000208C, symSize: 0x9C }
  - { offsetInCU: 0x97C6, offset: 0x97C6, size: 0x8, addend: 0x0, symName: __Z8timeTestv, symObjAddr: 0x344, symBinAddr: 0x100002128, symSize: 0x284 }
  - { offsetInCU: 0x9917, offset: 0x9917, size: 0x8, addend: 0x0, symName: __ZNSt3__114basic_ofstreamIcNS_11char_traitsIcEEEC1EPKcj, symObjAddr: 0x5C8, symBinAddr: 0x1000023AC, symSize: 0x16C }
  - { offsetInCU: 0x9961, offset: 0x9961, size: 0x8, addend: 0x0, symName: __ZNKSt3__114basic_ofstreamIcNS_11char_traitsIcEEE7is_openEv, symObjAddr: 0x734, symBinAddr: 0x100002518, symSize: 0x2C }
  - { offsetInCU: 0x9989, offset: 0x9989, size: 0x8, addend: 0x0, symName: __ZNSt3__113basic_ostreamIcNS_11char_traitsIcEEElsB7v160006EPFRS3_S4_E, symObjAddr: 0x7A8, symBinAddr: 0x10000258C, symSize: 0x2C }
  - { offsetInCU: 0x99BD, offset: 0x99BD, size: 0x8, addend: 0x0, symName: __ZNKSt3__16chrono8durationIxNS_5ratioILl1ELl1000000000EEEE5countB7v160006Ev, symObjAddr: 0x8B4, symBinAddr: 0x100002698, symSize: 0x18 }
  - { offsetInCU: 0x99E3, offset: 0x99E3, size: 0x8, addend: 0x0, symName: __ZNSt3__114basic_ofstreamIcNS_11char_traitsIcEEE5closeEv, symObjAddr: 0x8CC, symBinAddr: 0x1000026B0, symSize: 0x58 }
  - { offsetInCU: 0x9A10, offset: 0x9A10, size: 0x8, addend: 0x0, symName: __ZNSt3__114basic_ofstreamIcNS_11char_traitsIcEEED1Ev, symObjAddr: 0x924, symBinAddr: 0x100002708, symSize: 0x40 }
  - { offsetInCU: 0x9A3D, offset: 0x9A3D, size: 0x8, addend: 0x0, symName: _main, symObjAddr: 0x964, symBinAddr: 0x100002748, symSize: 0x2C }
  - { offsetInCU: 0x9A57, offset: 0x9A57, size: 0x8, addend: 0x0, symName: __ZN4NodeC1Ei, symObjAddr: 0x990, symBinAddr: 0x100002774, symSize: 0x34 }
  - { offsetInCU: 0x9A8F, offset: 0x9A8F, size: 0x8, addend: 0x0, symName: __ZNKSt3__113__atomic_baseIP4NodeLb0EEcvS2_B7v160006Ev, symObjAddr: 0x9C4, symBinAddr: 0x1000027A8, symSize: 0x28 }
  - { offsetInCU: 0x9AB5, offset: 0x9AB5, size: 0x8, addend: 0x0, symName: __ZNSt3__16atomicIP4NodeEaSB7v160006ES2_, symObjAddr: 0x9EC, symBinAddr: 0x1000027D0, symSize: 0x34 }
  - { offsetInCU: 0x9AEA, offset: 0x9AEA, size: 0x8, addend: 0x0, symName: __ZN4Node7setNextEPS_, symObjAddr: 0xA20, symBinAddr: 0x100002804, symSize: 0x30 }
  - { offsetInCU: 0x9B1E, offset: 0x9B1E, size: 0x8, addend: 0x0, symName: __ZNSt3__113__atomic_baseIiLb1EEppB7v160006Ei, symObjAddr: 0xA50, symBinAddr: 0x100002834, symSize: 0x30 }
  - { offsetInCU: 0x9B50, offset: 0x9B50, size: 0x8, addend: 0x0, symName: __ZN4NodeC2Ei, symObjAddr: 0xA80, symBinAddr: 0x100002864, symSize: 0x40 }
  - { offsetInCU: 0x9B88, offset: 0x9B88, size: 0x8, addend: 0x0, symName: __ZNSt3__16atomicIP4NodeEC1B7v160006ES2_, symObjAddr: 0xAC0, symBinAddr: 0x1000028A4, symSize: 0x34 }
  - { offsetInCU: 0x9BC1, offset: 0x9BC1, size: 0x8, addend: 0x0, symName: __ZNSt3__16atomicIP4NodeEC2B7v160006ES2_, symObjAddr: 0xAF4, symBinAddr: 0x1000028D8, symSize: 0x34 }
  - { offsetInCU: 0x9BFA, offset: 0x9BFA, size: 0x8, addend: 0x0, symName: __ZNSt3__113__atomic_baseIP4NodeLb0EEC2B7v160006ES2_, symObjAddr: 0xB28, symBinAddr: 0x10000290C, symSize: 0x34 }
  - { offsetInCU: 0x9C33, offset: 0x9C33, size: 0x8, addend: 0x0, symName: __ZNSt3__117__cxx_atomic_implIP4NodeNS_22__cxx_atomic_base_implIS2_EEEC1B7v160006ES2_, symObjAddr: 0xB5C, symBinAddr: 0x100002940, symSize: 0x34 }
  - { offsetInCU: 0x9C6C, offset: 0x9C6C, size: 0x8, addend: 0x0, symName: __ZNSt3__117__cxx_atomic_implIP4NodeNS_22__cxx_atomic_base_implIS2_EEEC2B7v160006ES2_, symObjAddr: 0xB90, symBinAddr: 0x100002974, symSize: 0x34 }
  - { offsetInCU: 0x9CA5, offset: 0x9CA5, size: 0x8, addend: 0x0, symName: __ZNSt3__122__cxx_atomic_base_implIP4NodeEC2ES2_, symObjAddr: 0xBC4, symBinAddr: 0x1000029A8, symSize: 0x20 }
  - { offsetInCU: 0x9CDE, offset: 0x9CDE, size: 0x8, addend: 0x0, symName: __ZNKSt3__113__atomic_baseIP4NodeLb0EE4loadB7v160006ENS_12memory_orderE, symObjAddr: 0xBE4, symBinAddr: 0x1000029C8, symSize: 0x2C }
  - { offsetInCU: 0x9D13, offset: 0x9D13, size: 0x8, addend: 0x0, symName: __ZNSt3__113__atomic_baseIP4NodeLb0EE5storeB7v160006ES2_NS_12memory_orderE, symObjAddr: 0xC90, symBinAddr: 0x100002A74, symSize: 0x34 }
  - { offsetInCU: 0x9D57, offset: 0x9D57, size: 0x8, addend: 0x0, symName: __ZNSt3__113__atomic_baseIiLb1EE9fetch_addB7v160006EiNS_12memory_orderE, symObjAddr: 0xD48, symBinAddr: 0x100002B2C, symSize: 0x34 }
  - { offsetInCU: 0x9D9B, offset: 0x9D9B, size: 0x8, addend: 0x0, symName: __ZN5StackC2Ev, symObjAddr: 0xE54, symBinAddr: 0x100002C38, symSize: 0x54 }
  - { offsetInCU: 0x9DC5, offset: 0x9DC5, size: 0x8, addend: 0x0, symName: __ZNSt3__16atomicIiEaSB7v160006Ei, symObjAddr: 0xEA8, symBinAddr: 0x100002C8C, symSize: 0x34 }
  - { offsetInCU: 0x9DFA, offset: 0x9DFA, size: 0x8, addend: 0x0, symName: __ZNSt3__113__atomic_baseIiLb0EE5storeB7v160006EiNS_12memory_orderE, symObjAddr: 0xEDC, symBinAddr: 0x100002CC0, symSize: 0x34 }
  - { offsetInCU: 0x9E48, offset: 0x9E48, size: 0x8, addend: 0x0, symName: __ZNKSt3__16chrono15__duration_castINS0_8durationIxNS_5ratioILl1ELl1000000000EEEEES5_NS3_ILl1ELl1EEELb1ELb1EEclB7v160006ERKS5_, symObjAddr: 0xF94, symBinAddr: 0x100002D78, symSize: 0x40 }
  - { offsetInCU: 0x9E8B, offset: 0x9E8B, size: 0x8, addend: 0x0, symName: __ZNSt3__16chrono8durationIxNS_5ratioILl1ELl1000000000EEEEC1B7v160006IxEERKT_PNS_9enable_ifIXaasr14is_convertibleIS8_xEE5valueooL_ZNS_17integral_constantIbLb0EE5valueEEntsr23treat_as_floating_pointIS6_EE5valueEvE4typeE, symObjAddr: 0xFD4, symBinAddr: 0x100002DB8, symSize: 0x3C }
  - { offsetInCU: 0x9ED8, offset: 0x9ED8, size: 0x8, addend: 0x0, symName: __ZNSt3__16chrono8durationIxNS_5ratioILl1ELl1000000000EEEEC2B7v160006IxEERKT_PNS_9enable_ifIXaasr14is_convertibleIS8_xEE5valueooL_ZNS_17integral_constantIbLb0EE5valueEEntsr23treat_as_floating_pointIS6_EE5valueEvE4typeE, symObjAddr: 0x1010, symBinAddr: 0x100002DF4, symSize: 0x28 }
  - { offsetInCU: 0x9F43, offset: 0x9F43, size: 0x8, addend: 0x0, symName: __ZNKSt3__16chrono10time_pointINS0_12steady_clockENS0_8durationIxNS_5ratioILl1ELl1000000000EEEEEE16time_since_epochB7v160006Ev, symObjAddr: 0x10A8, symBinAddr: 0x100002E8C, symSize: 0x20 }
  - { offsetInCU: 0x9F69, offset: 0x9F69, size: 0x8, addend: 0x0, symName: __ZNSt3__114basic_ofstreamIcNS_11char_traitsIcEEED2Ev, symObjAddr: 0x10C8, symBinAddr: 0x100002EAC, symSize: 0x64 }
  - { offsetInCU: 0x9FA3, offset: 0x9FA3, size: 0x8, addend: 0x0, symName: __ZTv0_n24_NSt3__114basic_ofstreamIcNS_11char_traitsIcEEED1Ev, symObjAddr: 0x112C, symBinAddr: 0x100002F10, symSize: 0x28 }
  - { offsetInCU: 0x9FBA, offset: 0x9FBA, size: 0x8, addend: 0x0, symName: __ZNSt3__19basic_iosIcNS_11char_traitsIcEEEC2B7v160006Ev, symObjAddr: 0x1154, symBinAddr: 0x100002F38, symSize: 0x44 }
  - { offsetInCU: 0x9FE4, offset: 0x9FE4, size: 0x8, addend: 0x0, symName: __ZNSt3__113basic_ostreamIcNS_11char_traitsIcEEEC2B7v160006EPNS_15basic_streambufIcS2_EE, symObjAddr: 0x1198, symBinAddr: 0x100002F7C, symSize: 0x60 }
  - { offsetInCU: 0xA029, offset: 0xA029, size: 0x8, addend: 0x0, symName: __ZNSt3__19basic_iosIcNS_11char_traitsIcEEE8setstateB7v160006Ej, symObjAddr: 0x11F8, symBinAddr: 0x100002FDC, symSize: 0x2C }
  - { offsetInCU: 0xA05E, offset: 0xA05E, size: 0x8, addend: 0x0, symName: __ZNSt3__18ios_baseC2B7v160006Ev, symObjAddr: 0x1224, symBinAddr: 0x100003008, symSize: 0x24 }
  - { offsetInCU: 0xA088, offset: 0xA088, size: 0x8, addend: 0x0, symName: __ZNSt3__19basic_iosIcNS_11char_traitsIcEEE4initB7v160006EPNS_15basic_streambufIcS2_EE, symObjAddr: 0x1248, symBinAddr: 0x10000302C, symSize: 0x44 }
  - { offsetInCU: 0xA0BF, offset: 0xA0BF, size: 0x8, addend: 0x0, symName: __ZNSt3__111char_traitsIcE3eofEv, symObjAddr: 0x128C, symBinAddr: 0x100003070, symSize: 0x8 }
  - { offsetInCU: 0xA0D3, offset: 0xA0D3, size: 0x8, addend: 0x0, symName: __ZNSt3__18ios_base8setstateB7v160006Ej, symObjAddr: 0x1294, symBinAddr: 0x100003078, symSize: 0x34 }
  - { offsetInCU: 0xA10A, offset: 0xA10A, size: 0x8, addend: 0x0, symName: __ZNKSt3__113basic_filebufIcNS_11char_traitsIcEEE7is_openEv, symObjAddr: 0x12C8, symBinAddr: 0x1000030AC, symSize: 0x24 }
  - { offsetInCU: 0xA132, offset: 0xA132, size: 0x8, addend: 0x0, symName: __ZNSt3__111char_traitsIcE6lengthEPKc, symObjAddr: 0x14D8, symBinAddr: 0x1000032BC, symSize: 0x34 }
  - { offsetInCU: 0xA173, offset: 0xA173, size: 0x8, addend: 0x0, symName: __ZNKSt3__113basic_ostreamIcNS_11char_traitsIcEEE6sentrycvbB7v160006Ev, symObjAddr: 0x150C, symBinAddr: 0x1000032F0, symSize: 0x1C }
  - { offsetInCU: 0xA199, offset: 0xA199, size: 0x8, addend: 0x0, symName: __ZNSt3__119ostreambuf_iteratorIcNS_11char_traitsIcEEEC1B7v160006ERNS_13basic_ostreamIcS2_EE, symObjAddr: 0x1768, symBinAddr: 0x10000354C, symSize: 0x34 }
  - { offsetInCU: 0xA1D1, offset: 0xA1D1, size: 0x8, addend: 0x0, symName: __ZNKSt3__18ios_base5flagsB7v160006Ev, symObjAddr: 0x179C, symBinAddr: 0x100003580, symSize: 0x18 }
  - { offsetInCU: 0xA1F9, offset: 0xA1F9, size: 0x8, addend: 0x0, symName: __ZNKSt3__19basic_iosIcNS_11char_traitsIcEEE4fillB7v160006Ev, symObjAddr: 0x17B4, symBinAddr: 0x100003598, symSize: 0x64 }
  - { offsetInCU: 0xA221, offset: 0xA221, size: 0x8, addend: 0x0, symName: __ZNKSt3__119ostreambuf_iteratorIcNS_11char_traitsIcEEE6failedB7v160006Ev, symObjAddr: 0x1818, symBinAddr: 0x1000035FC, symSize: 0x24 }
  - { offsetInCU: 0xA247, offset: 0xA247, size: 0x8, addend: 0x0, symName: __ZNKSt3__18ios_base5widthB7v160006Ev, symObjAddr: 0x1848, symBinAddr: 0x10000362C, symSize: 0x18 }
  - { offsetInCU: 0xA26F, offset: 0xA26F, size: 0x8, addend: 0x0, symName: __ZNSt3__115basic_streambufIcNS_11char_traitsIcEEE5sputnB7v160006EPKcl, symObjAddr: 0x1860, symBinAddr: 0x100003644, symSize: 0x3C }
  - { offsetInCU: 0xA2B1, offset: 0xA2B1, size: 0x8, addend: 0x0, symName: __ZNSt3__112basic_stringIcNS_11char_traitsIcEENS_9allocatorIcEEEC1B7v160006Emc, symObjAddr: 0x189C, symBinAddr: 0x100003680, symSize: 0x3C }
  - { offsetInCU: 0xA2F9, offset: 0xA2F9, size: 0x8, addend: 0x0, symName: __ZNKSt3__112basic_stringIcNS_11char_traitsIcEENS_9allocatorIcEEE4dataB7v160006Ev, symObjAddr: 0x18D8, symBinAddr: 0x1000036BC, symSize: 0x28 }
  - { offsetInCU: 0xA31F, offset: 0xA31F, size: 0x8, addend: 0x0, symName: __ZNSt3__18ios_base5widthB7v160006El, symObjAddr: 0x1900, symBinAddr: 0x1000036E4, symSize: 0x2C }
  - { offsetInCU: 0xA365, offset: 0xA365, size: 0x8, addend: 0x0, symName: __ZNSt3__112basic_stringIcNS_11char_traitsIcEENS_9allocatorIcEEEC2B7v160006Emc, symObjAddr: 0x192C, symBinAddr: 0x100003710, symSize: 0x54 }
  - { offsetInCU: 0xA3B2, offset: 0xA3B2, size: 0x8, addend: 0x0, symName: __ZNSt3__117__compressed_pairINS_12basic_stringIcNS_11char_traitsIcEENS_9allocatorIcEEE5__repES5_EC1B7v160006INS_18__default_init_tagESA_EEOT_OT0_, symObjAddr: 0x1980, symBinAddr: 0x100003764, symSize: 0x3C }
  - { offsetInCU: 0xA40A, offset: 0xA40A, size: 0x8, addend: 0x0, symName: __ZNSt3__117__compressed_pairINS_12basic_stringIcNS_11char_traitsIcEENS_9allocatorIcEEE5__repES5_EC2B7v160006INS_18__default_init_tagESA_EEOT_OT0_, symObjAddr: 0x19CC, symBinAddr: 0x1000037B0, symSize: 0x3C }
  - { offsetInCU: 0xA462, offset: 0xA462, size: 0x8, addend: 0x0, symName: __ZNSt3__122__compressed_pair_elemINS_12basic_stringIcNS_11char_traitsIcEENS_9allocatorIcEEE5__repELi0ELb0EEC2B7v160006ENS_18__default_init_tagE, symObjAddr: 0x1A08, symBinAddr: 0x1000037EC, symSize: 0x14 }
  - { offsetInCU: 0xA497, offset: 0xA497, size: 0x8, addend: 0x0, symName: __ZNSt3__122__compressed_pair_elemINS_9allocatorIcEELi1ELb1EEC2B7v160006ENS_18__default_init_tagE, symObjAddr: 0x1A1C, symBinAddr: 0x100003800, symSize: 0x2C }
  - { offsetInCU: 0xA4CC, offset: 0xA4CC, size: 0x8, addend: 0x0, symName: __ZNSt3__19allocatorIcEC2B7v160006Ev, symObjAddr: 0x1A48, symBinAddr: 0x10000382C, symSize: 0x2C }
  - { offsetInCU: 0xA4F6, offset: 0xA4F6, size: 0x8, addend: 0x0, symName: __ZNSt3__116__non_trivial_ifILb1ENS_9allocatorIcEEEC2B7v160006Ev, symObjAddr: 0x1A74, symBinAddr: 0x100003858, symSize: 0x14 }
  - { offsetInCU: 0xA520, offset: 0xA520, size: 0x8, addend: 0x0, symName: __ZNKSt3__112basic_stringIcNS_11char_traitsIcEENS_9allocatorIcEEE13__get_pointerB7v160006Ev, symObjAddr: 0x1A9C, symBinAddr: 0x100003880, symSize: 0x54 }
  - { offsetInCU: 0xA546, offset: 0xA546, size: 0x8, addend: 0x0, symName: __ZNKSt3__112basic_stringIcNS_11char_traitsIcEENS_9allocatorIcEEE9__is_longB7v160006Ev, symObjAddr: 0x1AF0, symBinAddr: 0x1000038D4, symSize: 0x38 }
  - { offsetInCU: 0xA56C, offset: 0xA56C, size: 0x8, addend: 0x0, symName: __ZNKSt3__112basic_stringIcNS_11char_traitsIcEENS_9allocatorIcEEE18__get_long_pointerB7v160006Ev, symObjAddr: 0x1B28, symBinAddr: 0x10000390C, symSize: 0x28 }
  - { offsetInCU: 0xA592, offset: 0xA592, size: 0x8, addend: 0x0, symName: __ZNKSt3__112basic_stringIcNS_11char_traitsIcEENS_9allocatorIcEEE19__get_short_pointerB7v160006Ev, symObjAddr: 0x1B50, symBinAddr: 0x100003934, symSize: 0x28 }
  - { offsetInCU: 0xA5B8, offset: 0xA5B8, size: 0x8, addend: 0x0, symName: __ZNKSt3__117__compressed_pairINS_12basic_stringIcNS_11char_traitsIcEENS_9allocatorIcEEE5__repES5_E5firstB7v160006Ev, symObjAddr: 0x1B78, symBinAddr: 0x10000395C, symSize: 0x24 }
  - { offsetInCU: 0xA5DE, offset: 0xA5DE, size: 0x8, addend: 0x0, symName: __ZNKSt3__122__compressed_pair_elemINS_12basic_stringIcNS_11char_traitsIcEENS_9allocatorIcEEE5__repELi0ELb0EE5__getB7v160006Ev, symObjAddr: 0x1B9C, symBinAddr: 0x100003980, symSize: 0x14 }
  - { offsetInCU: 0xA604, offset: 0xA604, size: 0x8, addend: 0x0, symName: __ZNSt3__114pointer_traitsIPKcE10pointer_toB7v160006ERS1_, symObjAddr: 0x1BB0, symBinAddr: 0x100003994, symSize: 0x14 }
  - { offsetInCU: 0xA627, offset: 0xA627, size: 0x8, addend: 0x0, symName: __ZNSt3__119ostreambuf_iteratorIcNS_11char_traitsIcEEEC2B7v160006ERNS_13basic_ostreamIcS2_EE, symObjAddr: 0x1BC4, symBinAddr: 0x1000039A8, symSize: 0x54 }
  - { offsetInCU: 0xA65F, offset: 0xA65F, size: 0x8, addend: 0x0, symName: __ZNKSt3__19basic_iosIcNS_11char_traitsIcEEE5rdbufB7v160006Ev, symObjAddr: 0x1C18, symBinAddr: 0x1000039FC, symSize: 0x24 }
  - { offsetInCU: 0xA687, offset: 0xA687, size: 0x8, addend: 0x0, symName: __ZNKSt3__18ios_base5rdbufB7v160006Ev, symObjAddr: 0x1C3C, symBinAddr: 0x100003A20, symSize: 0x18 }
  - { offsetInCU: 0xA6AD, offset: 0xA6AD, size: 0x8, addend: 0x0, symName: __ZNSt3__111char_traitsIcE11eq_int_typeEii, symObjAddr: 0x1C54, symBinAddr: 0x100003A38, symSize: 0x28 }
  - { offsetInCU: 0xA6DE, offset: 0xA6DE, size: 0x8, addend: 0x0, symName: __ZNKSt3__19basic_iosIcNS_11char_traitsIcEEE5widenB7v160006Ec, symObjAddr: 0x1C7C, symBinAddr: 0x100003A60, symSize: 0x84 }
  - { offsetInCU: 0xA74C, offset: 0xA74C, size: 0x8, addend: 0x0, symName: __ZNKSt3__15ctypeIcE5widenB7v160006Ec, symObjAddr: 0x1D2C, symBinAddr: 0x100003B10, symSize: 0x38 }
...
